; Function Attrs: mustprogress uwtable
define void @_ZN4YAML7Emitter14PrepareTopNodeENS_15EmitterNodeType5valueE(ptr noundef nonnull align 8 dereferenceable(72) %0, i32 noundef %1) local_unnamed_addr #0 align 2 {
  %3 = icmp eq i32 %1, 0
  br i1 %3, label %_ZN4YAML7Emitter15SpaceOrIndentToEbm.exit, label %4

4:                                                ; preds = %2
  %5 = load ptr, ptr %0, align 8, !tbaa !3
  %6 = tail call noundef i64 @_ZNK4YAML12EmitterState18CurGroupChildCountEv(ptr noundef nonnull align 8 dereferenceable(224) %5)
  %.not = icmp eq i64 %6, 0
  %7 = getelementptr inbounds nuw i8, ptr %0, i64 56
  %8 = load i64, ptr %7, align 8
  %.not2 = icmp eq i64 %8, 0
  %or.cond = select i1 %.not, i1 true, i1 %.not2
  br i1 %or.cond, label %10, label %9

9:                                                ; preds = %4
  tail call void @_ZN4YAML7Emitter12EmitBeginDocEv(ptr noundef nonnull align 8 dereferenceable(72) %0)
  br label %10

10:                                               ; preds = %9, %4
  switch i32 %1, label %_ZN4YAML7Emitter15SpaceOrIndentToEbm.exit [
    i32 6, label %28
    i32 1, label %11
    i32 2, label %11
    i32 3, label %11
    i32 5, label %11
    i32 4, label %28
  ]

11:                                               ; preds = %10, %10, %10, %10
  %12 = load ptr, ptr %0, align 8, !tbaa !3
  %13 = getelementptr inbounds nuw i8, ptr %12, i64 208
  %14 = load i8, ptr %13, align 8, !tbaa !48, !range !39, !noundef !40
  %15 = trunc nuw i8 %14 to i1
  %16 = getelementptr inbounds nuw i8, ptr %12, i64 210
  %17 = load i8, ptr %16, align 2, !range !39
  %18 = trunc nuw i8 %17 to i1
  %19 = select i1 %15, i1 true, i1 %18
  %20 = getelementptr inbounds nuw i8, ptr %0, i64 8
  %21 = getelementptr inbounds nuw i8, ptr %0, i64 64
  %22 = load i8, ptr %21, align 8, !tbaa !51, !range !39, !noundef !40
  %23 = trunc nuw i8 %22 to i1
  br i1 %23, label %24, label %25

24:                                               ; preds = %11
  tail call void @_ZN4YAML15ostream_wrapper5writeEPKcm(ptr noundef nonnull align 8 dereferenceable(57) %20, ptr noundef nonnull @.str.1, i64 noundef 1)
  br label %25

25:                                               ; preds = %24, %11
  %26 = load i64, ptr %7, align 8, !tbaa !50
  %.not.i = icmp ne i64 %26, 0
  %brmerge.not.i = and i1 %19, %.not.i
  br i1 %brmerge.not.i, label %27, label %_ZN4YAML7Emitter15SpaceOrIndentToEbm.exit

27:                                               ; preds = %25
  tail call void @_ZN4YAML15ostream_wrapper5writeEPKcm(ptr noundef nonnull align 8 dereferenceable(57) %20, ptr noundef nonnull @.str.13, i64 noundef 1)
  br label %_ZN4YAML7Emitter15SpaceOrIndentToEbm.exit

28:                                               ; preds = %10, %10
  %29 = load ptr, ptr %0, align 8, !tbaa !3
  %30 = getelementptr inbounds nuw i8, ptr %29, i64 208
  %31 = load i8, ptr %30, align 8, !tbaa !48, !range !39, !noundef !40
  %32 = trunc nuw i8 %31 to i1
  br i1 %32, label %_ZNK4YAML12EmitterState12HasBegunNodeEv.exit.thread, label %33

33:                                               ; preds = %28
  %34 = getelementptr inbounds nuw i8, ptr %29, i64 210
  %35 = load i8, ptr %34, align 2, !tbaa !49, !range !39, !noundef !40
  %36 = trunc nuw i8 %35 to i1
  br i1 %36, label %_ZNK4YAML12EmitterState12HasBegunNodeEv.exit.thread, label %_ZNK4YAML12EmitterState12HasBegunNodeEv.exit

_ZNK4YAML12EmitterState12HasBegunNodeEv.exit:     ; preds = %33
  %37 = getelementptr inbounds nuw i8, ptr %29, i64 211
  %38 = load i8, ptr %37, align 1, !tbaa !52, !range !39, !noundef !40
  %39 = trunc nuw i8 %38 to i1
  br i1 %39, label %_ZNK4YAML12EmitterState12HasBegunNodeEv.exit.thread, label %_ZN4YAML7Emitter15SpaceOrIndentToEbm.exit

_ZNK4YAML12EmitterState12HasBegunNodeEv.exit.thread: ; preds = %28, %33, %_ZNK4YAML12EmitterState12HasBegunNodeEv.exit
  %40 = getelementptr inbounds nuw i8, ptr %0, i64 8
  tail call void @_ZN4YAML15ostream_wrapper5writeEPKcm(ptr noundef nonnull align 8 dereferenceable(57) %40, ptr noundef nonnull @.str.1, i64 noundef 1)
  br label %_ZN4YAML7Emitter15SpaceOrIndentToEbm.exit

_ZN4YAML7Emitter15SpaceOrIndentToEbm.exit:        ; preds = %27, %25, %_ZNK4YAML12EmitterState12HasBegunNodeEv.exit, %_ZNK4YAML12EmitterState12HasBegunNodeEv.exit.thread, %2, %10
  ret void
}